target datalayout = "e-m:e-p270:32:32-p271:32:32-p272:64:64-i64:64-i128:128-f80:128-n8:16:32:64-S128"
target triple = "x86_64-pc-linux-gnu"

%struct.crypto_thread_st = type { i32, ptr, ptr, i32, ptr, ptr, ptr, ptr, i64, i32, ptr }

@.str = private unnamed_addr constant [32 x i8] c"../openssl/crypto/thread/arch.c\00", align 1

; Function Attrs: nounwind uwtable
define i32 @ossl_crypto_thread_native_clean(ptr noundef %0) #0 {
  %2 = alloca i32, align 4
  %3 = alloca ptr, align 8
  %4 = alloca i64, align 8
  %5 = alloca i32, align 4
  store ptr %0, ptr %3, align 8, !tbaa !9
  call void @llvm.lifetime.start.p0(i64 8, ptr %4) #3
  %6 = load ptr, ptr %3, align 8, !tbaa !9
  %7 = icmp eq ptr %6, null
  br i1 %7, label %8, label %9

8:                                                ; preds = %1
  store i32 0, ptr %2, align 4
  store i32 1, ptr %5, align 4
  br label %42

9:                                                ; preds = %1
  store i64 0, ptr %4, align 8, !tbaa !24
  %10 = load i64, ptr %4, align 8, !tbaa !24
  %11 = or i64 %10, 1
  store i64 %11, ptr %4, align 8, !tbaa !24
  %12 = load i64, ptr %4, align 8, !tbaa !24
  %13 = or i64 %12, 4
  store i64 %13, ptr %4, align 8, !tbaa !24
  %14 = load ptr, ptr %3, align 8, !tbaa !9
  %15 = getelementptr inbounds nuw %struct.crypto_thread_st, ptr %14, i32 0, i32 6
  %16 = load ptr, ptr %15, align 8, !tbaa !17
  call void @ossl_crypto_mutex_lock(ptr noundef %16)
  %17 = load ptr, ptr %3, align 8, !tbaa !9
  %18 = getelementptr inbounds nuw %struct.crypto_thread_st, ptr %17, i32 0, i32 0
  %19 = load i32, ptr %18, align 8, !tbaa !25
  %20 = zext i32 %19 to i64
  %21 = load i64, ptr %4, align 8, !tbaa !24
  %22 = and i64 %20, %21
  %23 = icmp eq i64 %22, 0
  br i1 %23, label %24, label %28

24:                                               ; preds = %9
  %25 = load ptr, ptr %3, align 8, !tbaa !9
  %26 = getelementptr inbounds nuw %struct.crypto_thread_st, ptr %25, i32 0, i32 6
  %27 = load ptr, ptr %26, align 8, !tbaa !17
  call void @ossl_crypto_mutex_unlock(ptr noundef %27)
  store i32 0, ptr %2, align 4
  store i32 1, ptr %5, align 4
  br label %42

28:                                               ; preds = %9
  %29 = load ptr, ptr %3, align 8, !tbaa !9
  %30 = getelementptr inbounds nuw %struct.crypto_thread_st, ptr %29, i32 0, i32 6
  %31 = load ptr, ptr %30, align 8, !tbaa !17
  call void @ossl_crypto_mutex_unlock(ptr noundef %31)
  %32 = load ptr, ptr %3, align 8, !tbaa !9
  %33 = getelementptr inbounds nuw %struct.crypto_thread_st, ptr %32, i32 0, i32 5
  call void @ossl_crypto_mutex_free(ptr noundef %33)
  %34 = load ptr, ptr %3, align 8, !tbaa !9
  %35 = getelementptr inbounds nuw %struct.crypto_thread_st, ptr %34, i32 0, i32 6
  call void @ossl_crypto_mutex_free(ptr noundef %35)
  %36 = load ptr, ptr %3, align 8, !tbaa !9
  %37 = getelementptr inbounds nuw %struct.crypto_thread_st, ptr %36, i32 0, i32 7
  call void @ossl_crypto_condvar_free(ptr noundef %37)
  %38 = load ptr, ptr %3, align 8, !tbaa !9
  %39 = getelementptr inbounds nuw %struct.crypto_thread_st, ptr %38, i32 0, i32 4
  %40 = load ptr, ptr %39, align 8, !tbaa !30
  call void @CRYPTO_free(ptr noundef %40, ptr noundef @.str, i32 noundef 128)
  %41 = load ptr, ptr %3, align 8, !tbaa !9
  call void @CRYPTO_free(ptr noundef %41, ptr noundef @.str, i32 noundef 129)
  store i32 1, ptr %2, align 4
  store i32 1, ptr %5, align 4
  br label %42

42:                                               ; preds = %28, %24, %8
  call void @llvm.lifetime.end.p0(i64 8, ptr %4) #3
  %43 = load i32, ptr %2, align 4
  ret i32 %43
}