; Function Attrs: nounwind uwtable
define range(i32 0, 2) i32 @ossl_crypto_thread_native_clean(ptr noundef %0) local_unnamed_addr #0 {
  %2 = icmp eq ptr %0, null
  br i1 %2, label %15, label %3

3:                                                ; preds = %1
  %4 = getelementptr inbounds nuw i8, ptr %0, i64 48
  %5 = load ptr, ptr %4, align 8, !tbaa !13
  tail call void @ossl_crypto_mutex_lock(ptr noundef %5) #2
  %6 = load i32, ptr %0, align 8, !tbaa !18
  %7 = and i32 %6, 5
  %8 = icmp eq i32 %7, 0
  %9 = load ptr, ptr %4, align 8, !tbaa !13
  tail call void @ossl_crypto_mutex_unlock(ptr noundef %9) #2
  br i1 %8, label %15, label %10

10:                                               ; preds = %3
  %11 = getelementptr inbounds nuw i8, ptr %0, i64 40
  tail call void @ossl_crypto_mutex_free(ptr noundef nonnull %11) #2
  tail call void @ossl_crypto_mutex_free(ptr noundef nonnull %4) #2
  %12 = getelementptr inbounds nuw i8, ptr %0, i64 56
  tail call void @ossl_crypto_condvar_free(ptr noundef nonnull %12) #2
  %13 = getelementptr inbounds nuw i8, ptr %0, i64 32
  %14 = load ptr, ptr %13, align 8, !tbaa !24
  tail call void @CRYPTO_free(ptr noundef %14, ptr noundef nonnull @.str, i32 noundef 128) #2
  tail call void @CRYPTO_free(ptr noundef nonnull %0, ptr noundef nonnull @.str, i32 noundef 129) #2
  br label %15

15:                                               ; preds = %3, %1, %10
  %.0 = phi i32 [ 1, %10 ], [ 0, %1 ], [ 0, %3 ]
  ret i32 %.0
}